target datalayout = "e-m:e-p270:32:32-p271:32:32-p272:64:64-i64:64-i128:128-f80:128-n8:16:32:64-S128"
target triple = "x86_64-pc-linux-gnu"

%struct.SelectStmt = type { i32, ptr, ptr, ptr, ptr, ptr, ptr, i8, ptr, ptr, ptr, ptr, ptr, ptr, i32, ptr, ptr, i32, i8, ptr, ptr, i32, i32 }

; Function Attrs: nounwind uwtable
define internal zeroext i1 @_equalSelectStmt(ptr noundef %0, ptr noundef %1) #0 {
  %3 = alloca i1, align 1
  %4 = alloca ptr, align 8
  %5 = alloca ptr, align 8
  store ptr %0, ptr %4, align 8
  store ptr %1, ptr %5, align 8
  br label %6

6:                                                ; preds = %2
  %7 = load ptr, ptr %4, align 8
  %8 = getelementptr inbounds nuw %struct.SelectStmt, ptr %7, i32 0, i32 1
  %9 = load ptr, ptr %8, align 8
  %10 = load ptr, ptr %5, align 8
  %11 = getelementptr inbounds nuw %struct.SelectStmt, ptr %10, i32 0, i32 1
  %12 = load ptr, ptr %11, align 8
  %13 = call zeroext i1 @equal(ptr noundef %9, ptr noundef %12)
  br i1 %13, label %15, label %14

14:                                               ; preds = %6
  store i1 false, ptr %3, align 1
  br label %234

15:                                               ; preds = %6
  br label %16

16:                                               ; preds = %15
  br label %17

17:                                               ; preds = %16
  %18 = load ptr, ptr %4, align 8
  %19 = getelementptr inbounds nuw %struct.SelectStmt, ptr %18, i32 0, i32 2
  %20 = load ptr, ptr %19, align 8
  %21 = load ptr, ptr %5, align 8
  %22 = getelementptr inbounds nuw %struct.SelectStmt, ptr %21, i32 0, i32 2
  %23 = load ptr, ptr %22, align 8
  %24 = call zeroext i1 @equal(ptr noundef %20, ptr noundef %23)
  br i1 %24, label %26, label %25

25:                                               ; preds = %17
  store i1 false, ptr %3, align 1
  br label %234

26:                                               ; preds = %17
  br label %27

27:                                               ; preds = %26
  br label %28

28:                                               ; preds = %27
  %29 = load ptr, ptr %4, align 8
  %30 = getelementptr inbounds nuw %struct.SelectStmt, ptr %29, i32 0, i32 3
  %31 = load ptr, ptr %30, align 8
  %32 = load ptr, ptr %5, align 8
  %33 = getelementptr inbounds nuw %struct.SelectStmt, ptr %32, i32 0, i32 3
  %34 = load ptr, ptr %33, align 8
  %35 = call zeroext i1 @equal(ptr noundef %31, ptr noundef %34)
  br i1 %35, label %37, label %36

36:                                               ; preds = %28
  store i1 false, ptr %3, align 1
  br label %234

37:                                               ; preds = %28
  br label %38

38:                                               ; preds = %37
  br label %39

39:                                               ; preds = %38
  %40 = load ptr, ptr %4, align 8
  %41 = getelementptr inbounds nuw %struct.SelectStmt, ptr %40, i32 0, i32 4
  %42 = load ptr, ptr %41, align 8
  %43 = load ptr, ptr %5, align 8
  %44 = getelementptr inbounds nuw %struct.SelectStmt, ptr %43, i32 0, i32 4
  %45 = load ptr, ptr %44, align 8
  %46 = call zeroext i1 @equal(ptr noundef %42, ptr noundef %45)
  br i1 %46, label %48, label %47

47:                                               ; preds = %39
  store i1 false, ptr %3, align 1
  br label %234

48:                                               ; preds = %39
  br label %49

49:                                               ; preds = %48
  br label %50

50:                                               ; preds = %49
  %51 = load ptr, ptr %4, align 8
  %52 = getelementptr inbounds nuw %struct.SelectStmt, ptr %51, i32 0, i32 5
  %53 = load ptr, ptr %52, align 8
  %54 = load ptr, ptr %5, align 8
  %55 = getelementptr inbounds nuw %struct.SelectStmt, ptr %54, i32 0, i32 5
  %56 = load ptr, ptr %55, align 8
  %57 = call zeroext i1 @equal(ptr noundef %53, ptr noundef %56)
  br i1 %57, label %59, label %58

58:                                               ; preds = %50
  store i1 false, ptr %3, align 1
  br label %234

59:                                               ; preds = %50
  br label %60

60:                                               ; preds = %59
  br label %61

61:                                               ; preds = %60
  %62 = load ptr, ptr %4, align 8
  %63 = getelementptr inbounds nuw %struct.SelectStmt, ptr %62, i32 0, i32 6
  %64 = load ptr, ptr %63, align 8
  %65 = load ptr, ptr %5, align 8
  %66 = getelementptr inbounds nuw %struct.SelectStmt, ptr %65, i32 0, i32 6
  %67 = load ptr, ptr %66, align 8
  %68 = call zeroext i1 @equal(ptr noundef %64, ptr noundef %67)
  br i1 %68, label %70, label %69

69:                                               ; preds = %61
  store i1 false, ptr %3, align 1
  br label %234

70:                                               ; preds = %61
  br label %71

71:                                               ; preds = %70
  br label %72

72:                                               ; preds = %71
  %73 = load ptr, ptr %4, align 8
  %74 = getelementptr inbounds nuw %struct.SelectStmt, ptr %73, i32 0, i32 7
  %75 = load i8, ptr %74, align 8, !range !4, !noundef !5
  %76 = trunc i8 %75 to i1
  %77 = zext i1 %76 to i32
  %78 = load ptr, ptr %5, align 8
  %79 = getelementptr inbounds nuw %struct.SelectStmt, ptr %78, i32 0, i32 7
  %80 = load i8, ptr %79, align 8, !range !4, !noundef !5
  %81 = trunc i8 %80 to i1
  %82 = zext i1 %81 to i32
  %83 = icmp ne i32 %77, %82
  br i1 %83, label %84, label %85

84:                                               ; preds = %72
  store i1 false, ptr %3, align 1
  br label %234

85:                                               ; preds = %72
  br label %86

86:                                               ; preds = %85
  br label %87

87:                                               ; preds = %86
  %88 = load ptr, ptr %4, align 8
  %89 = getelementptr inbounds nuw %struct.SelectStmt, ptr %88, i32 0, i32 8
  %90 = load ptr, ptr %89, align 8
  %91 = load ptr, ptr %5, align 8
  %92 = getelementptr inbounds nuw %struct.SelectStmt, ptr %91, i32 0, i32 8
  %93 = load ptr, ptr %92, align 8
  %94 = call zeroext i1 @equal(ptr noundef %90, ptr noundef %93)
  br i1 %94, label %96, label %95

95:                                               ; preds = %87
  store i1 false, ptr %3, align 1
  br label %234

96:                                               ; preds = %87
  br label %97

97:                                               ; preds = %96
  br label %98

98:                                               ; preds = %97
  %99 = load ptr, ptr %4, align 8
  %100 = getelementptr inbounds nuw %struct.SelectStmt, ptr %99, i32 0, i32 9
  %101 = load ptr, ptr %100, align 8
  %102 = load ptr, ptr %5, align 8
  %103 = getelementptr inbounds nuw %struct.SelectStmt, ptr %102, i32 0, i32 9
  %104 = load ptr, ptr %103, align 8
  %105 = call zeroext i1 @equal(ptr noundef %101, ptr noundef %104)
  br i1 %105, label %107, label %106

106:                                              ; preds = %98
  store i1 false, ptr %3, align 1
  br label %234

107:                                              ; preds = %98
  br label %108

108:                                              ; preds = %107
  br label %109

109:                                              ; preds = %108
  %110 = load ptr, ptr %4, align 8
  %111 = getelementptr inbounds nuw %struct.SelectStmt, ptr %110, i32 0, i32 10
  %112 = load ptr, ptr %111, align 8
  %113 = load ptr, ptr %5, align 8
  %114 = getelementptr inbounds nuw %struct.SelectStmt, ptr %113, i32 0, i32 10
  %115 = load ptr, ptr %114, align 8
  %116 = call zeroext i1 @equal(ptr noundef %112, ptr noundef %115)
  br i1 %116, label %118, label %117

117:                                              ; preds = %109
  store i1 false, ptr %3, align 1
  br label %234

118:                                              ; preds = %109
  br label %119

119:                                              ; preds = %118
  br label %120

120:                                              ; preds = %119
  %121 = load ptr, ptr %4, align 8
  %122 = getelementptr inbounds nuw %struct.SelectStmt, ptr %121, i32 0, i32 11
  %123 = load ptr, ptr %122, align 8
  %124 = load ptr, ptr %5, align 8
  %125 = getelementptr inbounds nuw %struct.SelectStmt, ptr %124, i32 0, i32 11
  %126 = load ptr, ptr %125, align 8
  %127 = call zeroext i1 @equal(ptr noundef %123, ptr noundef %126)
  br i1 %127, label %129, label %128

128:                                              ; preds = %120
  store i1 false, ptr %3, align 1
  br label %234

129:                                              ; preds = %120
  br label %130

130:                                              ; preds = %129
  br label %131

131:                                              ; preds = %130
  %132 = load ptr, ptr %4, align 8
  %133 = getelementptr inbounds nuw %struct.SelectStmt, ptr %132, i32 0, i32 12
  %134 = load ptr, ptr %133, align 8
  %135 = load ptr, ptr %5, align 8
  %136 = getelementptr inbounds nuw %struct.SelectStmt, ptr %135, i32 0, i32 12
  %137 = load ptr, ptr %136, align 8
  %138 = call zeroext i1 @equal(ptr noundef %134, ptr noundef %137)
  br i1 %138, label %140, label %139

139:                                              ; preds = %131
  store i1 false, ptr %3, align 1
  br label %234

140:                                              ; preds = %131
  br label %141

141:                                              ; preds = %140
  br label %142

142:                                              ; preds = %141
  %143 = load ptr, ptr %4, align 8
  %144 = getelementptr inbounds nuw %struct.SelectStmt, ptr %143, i32 0, i32 13
  %145 = load ptr, ptr %144, align 8
  %146 = load ptr, ptr %5, align 8
  %147 = getelementptr inbounds nuw %struct.SelectStmt, ptr %146, i32 0, i32 13
  %148 = load ptr, ptr %147, align 8
  %149 = call zeroext i1 @equal(ptr noundef %145, ptr noundef %148)
  br i1 %149, label %151, label %150

150:                                              ; preds = %142
  store i1 false, ptr %3, align 1
  br label %234

151:                                              ; preds = %142
  br label %152

152:                                              ; preds = %151
  br label %153

153:                                              ; preds = %152
  %154 = load ptr, ptr %4, align 8
  %155 = getelementptr inbounds nuw %struct.SelectStmt, ptr %154, i32 0, i32 14
  %156 = load i32, ptr %155, align 8
  %157 = load ptr, ptr %5, align 8
  %158 = getelementptr inbounds nuw %struct.SelectStmt, ptr %157, i32 0, i32 14
  %159 = load i32, ptr %158, align 8
  %160 = icmp ne i32 %156, %159
  br i1 %160, label %161, label %162

161:                                              ; preds = %153
  store i1 false, ptr %3, align 1
  br label %234

162:                                              ; preds = %153
  br label %163

163:                                              ; preds = %162
  br label %164

164:                                              ; preds = %163
  %165 = load ptr, ptr %4, align 8
  %166 = getelementptr inbounds nuw %struct.SelectStmt, ptr %165, i32 0, i32 15
  %167 = load ptr, ptr %166, align 8
  %168 = load ptr, ptr %5, align 8
  %169 = getelementptr inbounds nuw %struct.SelectStmt, ptr %168, i32 0, i32 15
  %170 = load ptr, ptr %169, align 8
  %171 = call zeroext i1 @equal(ptr noundef %167, ptr noundef %170)
  br i1 %171, label %173, label %172

172:                                              ; preds = %164
  store i1 false, ptr %3, align 1
  br label %234

173:                                              ; preds = %164
  br label %174

174:                                              ; preds = %173
  br label %175

175:                                              ; preds = %174
  %176 = load ptr, ptr %4, align 8
  %177 = getelementptr inbounds nuw %struct.SelectStmt, ptr %176, i32 0, i32 16
  %178 = load ptr, ptr %177, align 8
  %179 = load ptr, ptr %5, align 8
  %180 = getelementptr inbounds nuw %struct.SelectStmt, ptr %179, i32 0, i32 16
  %181 = load ptr, ptr %180, align 8
  %182 = call zeroext i1 @equal(ptr noundef %178, ptr noundef %181)
  br i1 %182, label %184, label %183

183:                                              ; preds = %175
  store i1 false, ptr %3, align 1
  br label %234

184:                                              ; preds = %175
  br label %185

185:                                              ; preds = %184
  br label %186

186:                                              ; preds = %185
  %187 = load ptr, ptr %4, align 8
  %188 = getelementptr inbounds nuw %struct.SelectStmt, ptr %187, i32 0, i32 17
  %189 = load i32, ptr %188, align 8
  %190 = load ptr, ptr %5, align 8
  %191 = getelementptr inbounds nuw %struct.SelectStmt, ptr %190, i32 0, i32 17
  %192 = load i32, ptr %191, align 8
  %193 = icmp ne i32 %189, %192
  br i1 %193, label %194, label %195

194:                                              ; preds = %186
  store i1 false, ptr %3, align 1
  br label %234

195:                                              ; preds = %186
  br label %196

196:                                              ; preds = %195
  br label %197

197:                                              ; preds = %196
  %198 = load ptr, ptr %4, align 8
  %199 = getelementptr inbounds nuw %struct.SelectStmt, ptr %198, i32 0, i32 18
  %200 = load i8, ptr %199, align 4, !range !4, !noundef !5
  %201 = trunc i8 %200 to i1
  %202 = zext i1 %201 to i32
  %203 = load ptr, ptr %5, align 8
  %204 = getelementptr inbounds nuw %struct.SelectStmt, ptr %203, i32 0, i32 18
  %205 = load i8, ptr %204, align 4, !range !4, !noundef !5
  %206 = trunc i8 %205 to i1
  %207 = zext i1 %206 to i32
  %208 = icmp ne i32 %202, %207
  br i1 %208, label %209, label %210

209:                                              ; preds = %197
  store i1 false, ptr %3, align 1
  br label %234

210:                                              ; preds = %197
  br label %211

211:                                              ; preds = %210
  br label %212

212:                                              ; preds = %211
  %213 = load ptr, ptr %4, align 8
  %214 = getelementptr inbounds nuw %struct.SelectStmt, ptr %213, i32 0, i32 19
  %215 = load ptr, ptr %214, align 8
  %216 = load ptr, ptr %5, align 8
  %217 = getelementptr inbounds nuw %struct.SelectStmt, ptr %216, i32 0, i32 19
  %218 = load ptr, ptr %217, align 8
  %219 = call zeroext i1 @equal(ptr noundef %215, ptr noundef %218)
  br i1 %219, label %221, label %220

220:                                              ; preds = %212
  store i1 false, ptr %3, align 1
  br label %234

221:                                              ; preds = %212
  br label %222

222:                                              ; preds = %221
  br label %223

223:                                              ; preds = %222
  %224 = load ptr, ptr %4, align 8
  %225 = getelementptr inbounds nuw %struct.SelectStmt, ptr %224, i32 0, i32 20
  %226 = load ptr, ptr %225, align 8
  %227 = load ptr, ptr %5, align 8
  %228 = getelementptr inbounds nuw %struct.SelectStmt, ptr %227, i32 0, i32 20
  %229 = load ptr, ptr %228, align 8
  %230 = call zeroext i1 @equal(ptr noundef %226, ptr noundef %229)
  br i1 %230, label %232, label %231

231:                                              ; preds = %223
  store i1 false, ptr %3, align 1
  br label %234

232:                                              ; preds = %223
  br label %233

233:                                              ; preds = %232
  store i1 true, ptr %3, align 1
  br label %234

234:                                              ; preds = %233, %231, %220, %209, %194, %183, %172, %161, %150, %139, %128, %117, %106, %95, %84, %69, %58, %47, %36, %25, %14
  %235 = load i1, ptr %3, align 1
  ret i1 %235
}