; Function Attrs: nounwind uwtable
define internal fastcc zeroext i1 @_equalSelectStmt(ptr noundef nonnull readonly captures(none) %0, ptr noundef nonnull readonly captures(none) %1) unnamed_addr #0 {
  %3 = getelementptr inbounds nuw i8, ptr %0, i64 8
  %4 = load ptr, ptr %3, align 8
  %5 = getelementptr inbounds nuw i8, ptr %1, i64 8
  %6 = load ptr, ptr %5, align 8
  %7 = tail call zeroext i1 @equal(ptr noundef %4, ptr noundef %6)
  br i1 %7, label %8, label %118

8:                                                ; preds = %2
  %9 = getelementptr inbounds nuw i8, ptr %0, i64 16
  %10 = load ptr, ptr %9, align 8
  %11 = getelementptr inbounds nuw i8, ptr %1, i64 16
  %12 = load ptr, ptr %11, align 8
  %13 = tail call zeroext i1 @equal(ptr noundef %10, ptr noundef %12)
  br i1 %13, label %14, label %118

14:                                               ; preds = %8
  %15 = getelementptr inbounds nuw i8, ptr %0, i64 24
  %16 = load ptr, ptr %15, align 8
  %17 = getelementptr inbounds nuw i8, ptr %1, i64 24
  %18 = load ptr, ptr %17, align 8
  %19 = tail call zeroext i1 @equal(ptr noundef %16, ptr noundef %18)
  br i1 %19, label %20, label %118

20:                                               ; preds = %14
  %21 = getelementptr inbounds nuw i8, ptr %0, i64 32
  %22 = load ptr, ptr %21, align 8
  %23 = getelementptr inbounds nuw i8, ptr %1, i64 32
  %24 = load ptr, ptr %23, align 8
  %25 = tail call zeroext i1 @equal(ptr noundef %22, ptr noundef %24)
  br i1 %25, label %26, label %118

26:                                               ; preds = %20
  %27 = getelementptr inbounds nuw i8, ptr %0, i64 40
  %28 = load ptr, ptr %27, align 8
  %29 = getelementptr inbounds nuw i8, ptr %1, i64 40
  %30 = load ptr, ptr %29, align 8
  %31 = tail call zeroext i1 @equal(ptr noundef %28, ptr noundef %30)
  br i1 %31, label %32, label %118

32:                                               ; preds = %26
  %33 = getelementptr inbounds nuw i8, ptr %0, i64 48
  %34 = load ptr, ptr %33, align 8
  %35 = getelementptr inbounds nuw i8, ptr %1, i64 48
  %36 = load ptr, ptr %35, align 8
  %37 = tail call zeroext i1 @equal(ptr noundef %34, ptr noundef %36)
  br i1 %37, label %38, label %118

38:                                               ; preds = %32
  %39 = getelementptr inbounds nuw i8, ptr %0, i64 56
  %40 = load i8, ptr %39, align 8, !range !4, !noundef !5
  %41 = getelementptr inbounds nuw i8, ptr %1, i64 56
  %42 = load i8, ptr %41, align 8, !range !4, !noundef !5
  %.not = icmp eq i8 %40, %42
  br i1 %.not, label %43, label %118

43:                                               ; preds = %38
  %44 = getelementptr inbounds nuw i8, ptr %0, i64 64
  %45 = load ptr, ptr %44, align 8
  %46 = getelementptr inbounds nuw i8, ptr %1, i64 64
  %47 = load ptr, ptr %46, align 8
  %48 = tail call zeroext i1 @equal(ptr noundef %45, ptr noundef %47)
  br i1 %48, label %49, label %118

49:                                               ; preds = %43
  %50 = getelementptr inbounds nuw i8, ptr %0, i64 72
  %51 = load ptr, ptr %50, align 8
  %52 = getelementptr inbounds nuw i8, ptr %1, i64 72
  %53 = load ptr, ptr %52, align 8
  %54 = tail call zeroext i1 @equal(ptr noundef %51, ptr noundef %53)
  br i1 %54, label %55, label %118

55:                                               ; preds = %49
  %56 = getelementptr inbounds nuw i8, ptr %0, i64 80
  %57 = load ptr, ptr %56, align 8
  %58 = getelementptr inbounds nuw i8, ptr %1, i64 80
  %59 = load ptr, ptr %58, align 8
  %60 = tail call zeroext i1 @equal(ptr noundef %57, ptr noundef %59)
  br i1 %60, label %61, label %118

61:                                               ; preds = %55
  %62 = getelementptr inbounds nuw i8, ptr %0, i64 88
  %63 = load ptr, ptr %62, align 8
  %64 = getelementptr inbounds nuw i8, ptr %1, i64 88
  %65 = load ptr, ptr %64, align 8
  %66 = tail call zeroext i1 @equal(ptr noundef %63, ptr noundef %65)
  br i1 %66, label %67, label %118

67:                                               ; preds = %61
  %68 = getelementptr inbounds nuw i8, ptr %0, i64 96
  %69 = load ptr, ptr %68, align 8
  %70 = getelementptr inbounds nuw i8, ptr %1, i64 96
  %71 = load ptr, ptr %70, align 8
  %72 = tail call zeroext i1 @equal(ptr noundef %69, ptr noundef %71)
  br i1 %72, label %73, label %118

73:                                               ; preds = %67
  %74 = getelementptr inbounds nuw i8, ptr %0, i64 104
  %75 = load ptr, ptr %74, align 8
  %76 = getelementptr inbounds nuw i8, ptr %1, i64 104
  %77 = load ptr, ptr %76, align 8
  %78 = tail call zeroext i1 @equal(ptr noundef %75, ptr noundef %77)
  br i1 %78, label %79, label %118

79:                                               ; preds = %73
  %80 = getelementptr inbounds nuw i8, ptr %0, i64 112
  %81 = load i32, ptr %80, align 8
  %82 = getelementptr inbounds nuw i8, ptr %1, i64 112
  %83 = load i32, ptr %82, align 8
  %.not41 = icmp eq i32 %81, %83
  br i1 %.not41, label %84, label %118

84:                                               ; preds = %79
  %85 = getelementptr inbounds nuw i8, ptr %0, i64 120
  %86 = load ptr, ptr %85, align 8
  %87 = getelementptr inbounds nuw i8, ptr %1, i64 120
  %88 = load ptr, ptr %87, align 8
  %89 = tail call zeroext i1 @equal(ptr noundef %86, ptr noundef %88)
  br i1 %89, label %90, label %118

90:                                               ; preds = %84
  %91 = getelementptr inbounds nuw i8, ptr %0, i64 128
  %92 = load ptr, ptr %91, align 8
  %93 = getelementptr inbounds nuw i8, ptr %1, i64 128
  %94 = load ptr, ptr %93, align 8
  %95 = tail call zeroext i1 @equal(ptr noundef %92, ptr noundef %94)
  br i1 %95, label %96, label %118

96:                                               ; preds = %90
  %97 = getelementptr inbounds nuw i8, ptr %0, i64 136
  %98 = load i32, ptr %97, align 8
  %99 = getelementptr inbounds nuw i8, ptr %1, i64 136
  %100 = load i32, ptr %99, align 8
  %.not42 = icmp eq i32 %98, %100
  br i1 %.not42, label %101, label %118

101:                                              ; preds = %96
  %102 = getelementptr inbounds nuw i8, ptr %0, i64 140
  %103 = load i8, ptr %102, align 4, !range !4, !noundef !5
  %104 = getelementptr inbounds nuw i8, ptr %1, i64 140
  %105 = load i8, ptr %104, align 4, !range !4, !noundef !5
  %.not43 = icmp eq i8 %103, %105
  br i1 %.not43, label %106, label %118

106:                                              ; preds = %101
  %107 = getelementptr inbounds nuw i8, ptr %0, i64 144
  %108 = load ptr, ptr %107, align 8
  %109 = getelementptr inbounds nuw i8, ptr %1, i64 144
  %110 = load ptr, ptr %109, align 8
  %111 = tail call zeroext i1 @equal(ptr noundef %108, ptr noundef %110)
  br i1 %111, label %112, label %118

112:                                              ; preds = %106
  %113 = getelementptr inbounds nuw i8, ptr %0, i64 152
  %114 = load ptr, ptr %113, align 8
  %115 = getelementptr inbounds nuw i8, ptr %1, i64 152
  %116 = load ptr, ptr %115, align 8
  %117 = tail call zeroext i1 @equal(ptr noundef %114, ptr noundef %116)
  br label %118

118:                                              ; preds = %112, %106, %101, %96, %90, %84, %79, %73, %67, %61, %55, %49, %43, %38, %32, %26, %20, %14, %8, %2
  %.0 = phi i1 [ false, %2 ], [ false, %8 ], [ false, %14 ], [ false, %20 ], [ false, %26 ], [ false, %32 ], [ false, %38 ], [ false, %43 ], [ false, %49 ], [ false, %55 ], [ false, %61 ], [ false, %67 ], [ false, %73 ], [ false, %79 ], [ false, %84 ], [ false, %90 ], [ false, %96 ], [ false, %101 ], [ false, %106 ], [ %117, %112 ]
  ret i1 %.0
}